target datalayout = "e-m:e-p270:32:32-p271:32:32-p272:64:64-i64:64-i128:128-f80:128-n8:16:32:64-S128"
target triple = "x86_64-unknown-linux-gnu"

%"class.icu_75::BucketList" = type { %"class.icu_75::UObject", ptr, ptr }
%"class.icu_75::UObject" = type { ptr }
%"class.icu_75::UnicodeString" = type { %"class.icu_75::Replaceable", %"union.icu_75::UnicodeString::StackBufferOrFields" }
%"class.icu_75::Replaceable" = type { %"class.icu_75::UObject" }
%"union.icu_75::UnicodeString::StackBufferOrFields" = type { %struct.anon.0, [32 x i8] }
%struct.anon.0 = type { i16, i32, i32, ptr }
%"class.icu_75::AlphabeticIndex" = type { %"class.icu_75::UObject", ptr, i32, i32, ptr, i32, ptr, ptr, ptr, ptr, ptr, %"class.icu_75::UnicodeString", %"class.icu_75::UnicodeString", %"class.icu_75::UnicodeString", %"class.icu_75::UnicodeString", %"class.icu_75::UnicodeString" }
%"class.icu_75::UVector" = type { %"class.icu_75::UObject", i32, i32, ptr, ptr, ptr }

; Function Attrs: mustprogress uwtable
define linkonce_odr noundef ptr @_ZNK6icu_757UVectorixEi(ptr noundef nonnull align 8 dereferenceable(40) %this, i32 noundef %index) #2 comdat align 2 {
entry:
  %this.addr = alloca ptr, align 8
  %index.addr = alloca i32, align 4
  store ptr %this, ptr %this.addr, align 8
  store i32 %index, ptr %index.addr, align 4
  %this1 = load ptr, ptr %this.addr, align 8
  %0 = load i32, ptr %index.addr, align 4
  %call = call noundef ptr @_ZNK6icu_757UVector9elementAtEi(ptr noundef nonnull align 8 dereferenceable(40) %this1, i32 noundef %0)
  ret ptr %call
}

; Function Attrs: mustprogress nounwind uwtable
define linkonce_odr noundef i32 @_ZNK6icu_757UVector4sizeEv(ptr noundef nonnull align 8 dereferenceable(40) %this) #0 comdat align 2 {
entry:
  %this.addr = alloca ptr, align 8
  store ptr %this, ptr %this.addr, align 8
  %this1 = load ptr, ptr %this.addr, align 8
  %count = getelementptr inbounds %"class.icu_75::UVector", ptr %this1, i32 0, i32 1
  %0 = load i32, ptr %count, align 8
  ret i32 %0
}

; Function Attrs: mustprogress uwtable
define internal noundef ptr @_ZN6icu_7512_GLOBAL__N_19getBucketERKNS_7UVectorEi(ptr noundef nonnull align 8 dereferenceable(40) %list, i32 noundef %i) #2 {
entry:
  %list.addr = alloca ptr, align 8
  %i.addr = alloca i32, align 4
  store ptr %list, ptr %list.addr, align 8
  store i32 %i, ptr %i.addr, align 4
  %0 = load ptr, ptr %list.addr, align 8
  %1 = load i32, ptr %i.addr, align 4
  %call = call noundef ptr @_ZNK6icu_757UVectorixEi(ptr noundef nonnull align 8 dereferenceable(40) %0, i32 noundef %1)
  ret ptr %call
}

; Function Attrs: mustprogress uwtable
define linkonce_odr noundef i32 @_ZNK6icu_7510BucketList14getBucketCountEv(ptr noundef nonnull align 8 dereferenceable(24) %this) #2 comdat align 2 {
entry:
  %this.addr = alloca ptr, align 8
  store ptr %this, ptr %this.addr, align 8
  %this1 = load ptr, ptr %this.addr, align 8
  %immutableVisibleList_ = getelementptr inbounds %"class.icu_75::BucketList", ptr %this1, i32 0, i32 2
  %0 = load ptr, ptr %immutableVisibleList_, align 8
  %call = call noundef i32 @_ZNK6icu_757UVector4sizeEv(ptr noundef nonnull align 8 dereferenceable(40) %0)
  ret i32 %call
}

; Function Attrs: mustprogress nounwind uwtable
define internal noundef signext i8 @_ZL9U_FAILURE10UErrorCode(i32 noundef %code) #0 {
entry:
  %code.addr = alloca i32, align 4
  store i32 %code, ptr %code.addr, align 4
  %0 = load i32, ptr %code.addr, align 4
  %cmp = icmp sgt i32 %0, 0
  %conv = zext i1 %cmp to i8
  ret i8 %conv
}

; Function Attrs: mustprogress uwtable
define noundef signext i8 @_ZN6icu_7515AlphabeticIndex10nextBucketER10UErrorCode(ptr noundef nonnull align 8 dereferenceable(400) %this, ptr noundef nonnull align 4 dereferenceable(4) %status) unnamed_addr #2 align 2 {
entry:
  %retval = alloca i8, align 1
  %this.addr = alloca ptr, align 8
  %status.addr = alloca ptr, align 8
  store ptr %this, ptr %this.addr, align 8
  store ptr %status, ptr %status.addr, align 8
  %this1 = load ptr, ptr %this.addr, align 8
  %0 = load ptr, ptr %status.addr, align 8
  %1 = load i32, ptr %0, align 4
  %call = call noundef signext i8 @_ZL9U_FAILURE10UErrorCode(i32 noundef %1)
  %tobool = icmp ne i8 %call, 0
  br i1 %tobool, label %if.then, label %if.end

if.then:                                          ; preds = %entry
  store i8 0, ptr %retval, align 1
  br label %return

if.end:                                           ; preds = %entry
  %buckets_ = getelementptr inbounds %"class.icu_75::AlphabeticIndex", ptr %this1, i32 0, i32 10
  %2 = load ptr, ptr %buckets_, align 8
  %cmp = icmp eq ptr %2, null
  br i1 %cmp, label %land.lhs.true, label %if.end4

land.lhs.true:                                    ; preds = %if.end
  %currentBucket_ = getelementptr inbounds %"class.icu_75::AlphabeticIndex", ptr %this1, i32 0, i32 4
  %3 = load ptr, ptr %currentBucket_, align 8
  %cmp2 = icmp ne ptr %3, null
  br i1 %cmp2, label %if.then3, label %if.end4

if.then3:                                         ; preds = %land.lhs.true
  %4 = load ptr, ptr %status.addr, align 8
  store i32 25, ptr %4, align 4
  store i8 0, ptr %retval, align 1
  br label %return

if.end4:                                          ; preds = %land.lhs.true, %if.end
  %5 = load ptr, ptr %status.addr, align 8
  call void @_ZN6icu_7515AlphabeticIndex11initBucketsER10UErrorCode(ptr noundef nonnull align 8 dereferenceable(400) %this1, ptr noundef nonnull align 4 dereferenceable(4) %5)
  %6 = load ptr, ptr %status.addr, align 8
  %7 = load i32, ptr %6, align 4
  %call5 = call noundef signext i8 @_ZL9U_FAILURE10UErrorCode(i32 noundef %7)
  %tobool6 = icmp ne i8 %call5, 0
  br i1 %tobool6, label %if.then7, label %if.end8

if.then7:                                         ; preds = %if.end4
  store i8 0, ptr %retval, align 1
  br label %return

if.end8:                                          ; preds = %if.end4
  %labelsIterIndex_ = getelementptr inbounds %"class.icu_75::AlphabeticIndex", ptr %this1, i32 0, i32 2
  %8 = load i32, ptr %labelsIterIndex_, align 8
  %inc = add nsw i32 %8, 1
  store i32 %inc, ptr %labelsIterIndex_, align 8
  %labelsIterIndex_9 = getelementptr inbounds %"class.icu_75::AlphabeticIndex", ptr %this1, i32 0, i32 2
  %9 = load i32, ptr %labelsIterIndex_9, align 8
  %buckets_10 = getelementptr inbounds %"class.icu_75::AlphabeticIndex", ptr %this1, i32 0, i32 10
  %10 = load ptr, ptr %buckets_10, align 8
  %call11 = call noundef i32 @_ZNK6icu_7510BucketList14getBucketCountEv(ptr noundef nonnull align 8 dereferenceable(24) %10)
  %cmp12 = icmp sge i32 %9, %call11
  br i1 %cmp12, label %if.then13, label %if.end17

if.then13:                                        ; preds = %if.end8
  %buckets_14 = getelementptr inbounds %"class.icu_75::AlphabeticIndex", ptr %this1, i32 0, i32 10
  %11 = load ptr, ptr %buckets_14, align 8
  %call15 = call noundef i32 @_ZNK6icu_7510BucketList14getBucketCountEv(ptr noundef nonnull align 8 dereferenceable(24) %11)
  %labelsIterIndex_16 = getelementptr inbounds %"class.icu_75::AlphabeticIndex", ptr %this1, i32 0, i32 2
  store i32 %call15, ptr %labelsIterIndex_16, align 8
  store i8 0, ptr %retval, align 1
  br label %return

if.end17:                                         ; preds = %if.end8
  %buckets_18 = getelementptr inbounds %"class.icu_75::AlphabeticIndex", ptr %this1, i32 0, i32 10
  %12 = load ptr, ptr %buckets_18, align 8
  %immutableVisibleList_ = getelementptr inbounds %"class.icu_75::BucketList", ptr %12, i32 0, i32 2
  %13 = load ptr, ptr %immutableVisibleList_, align 8
  %labelsIterIndex_19 = getelementptr inbounds %"class.icu_75::AlphabeticIndex", ptr %this1, i32 0, i32 2
  %14 = load i32, ptr %labelsIterIndex_19, align 8
  %call20 = call noundef ptr @_ZN6icu_7512_GLOBAL__N_19getBucketERKNS_7UVectorEi(ptr noundef nonnull align 8 dereferenceable(40) %13, i32 noundef %14)
  %currentBucket_21 = getelementptr inbounds %"class.icu_75::AlphabeticIndex", ptr %this1, i32 0, i32 4
  store ptr %call20, ptr %currentBucket_21, align 8
  %vtable = load ptr, ptr %this1, align 8
  %vfn = getelementptr inbounds ptr, ptr %vtable, i64 28
  %15 = load ptr, ptr %vfn, align 8
  %call22 = call noundef nonnull align 8 dereferenceable(400) ptr %15(ptr noundef nonnull align 8 dereferenceable(400) %this1)
  store i8 1, ptr %retval, align 1
  br label %return

return:                                           ; preds = %if.end17, %if.then13, %if.then7, %if.then3, %if.then
  %16 = load i8, ptr %retval, align 1
  ret i8 %16
}