; Function Attrs: mustprogress uwtable
define noundef signext i8 @_ZN6icu_7515AlphabeticIndex10nextBucketER10UErrorCode(ptr noundef nonnull align 8 dereferenceable(400) %this, ptr noundef nonnull align 4 dereferenceable(4) %status) unnamed_addr #3 align 2 {
entry:
  %0 = load i32, ptr %status, align 4
  %cmp.i = icmp slt i32 %0, 1
  br i1 %cmp.i, label %if.end, label %return

if.end:                                           ; preds = %entry
  %buckets_ = getelementptr inbounds i8, ptr %this, i64 72
  %1 = load ptr, ptr %buckets_, align 8
  %cmp = icmp ne ptr %1, null
  %currentBucket_ = getelementptr inbounds i8, ptr %this, i64 24
  %2 = load ptr, ptr %currentBucket_, align 8
  %cmp2.not = icmp eq ptr %2, null
  %or.cond = select i1 %cmp, i1 true, i1 %cmp2.not
  br i1 %or.cond, label %if.end4, label %if.then3

if.then3:                                         ; preds = %if.end
  store i32 25, ptr %status, align 4
  br label %return

if.end4:                                          ; preds = %if.end
  tail call void @_ZN6icu_7515AlphabeticIndex11initBucketsER10UErrorCode(ptr noundef nonnull align 8 dereferenceable(400) %this, ptr noundef nonnull align 4 dereferenceable(4) %status)
  %3 = load i32, ptr %status, align 4
  %cmp.i4 = icmp slt i32 %3, 1
  br i1 %cmp.i4, label %if.end8, label %return

if.end8:                                          ; preds = %if.end4
  %labelsIterIndex_ = getelementptr inbounds i8, ptr %this, i64 16
  %4 = load i32, ptr %labelsIterIndex_, align 8
  %inc = add nsw i32 %4, 1
  store i32 %inc, ptr %labelsIterIndex_, align 8
  %5 = load ptr, ptr %buckets_, align 8
  %immutableVisibleList_.i = getelementptr inbounds i8, ptr %5, i64 16
  %6 = load ptr, ptr %immutableVisibleList_.i, align 8
  %count.i.i = getelementptr inbounds i8, ptr %6, i64 8
  %7 = load i32, ptr %count.i.i, align 8
  %cmp12.not = icmp slt i32 %inc, %7
  br i1 %cmp12.not, label %if.end17, label %if.then13

if.then13:                                        ; preds = %if.end8
  store i32 %7, ptr %labelsIterIndex_, align 8
  br label %return

if.end17:                                         ; preds = %if.end8
  %call.i.i = tail call noundef ptr @_ZNK6icu_757UVector9elementAtEi(ptr noundef nonnull align 8 dereferenceable(40) %6, i32 noundef %inc)
  store ptr %call.i.i, ptr %currentBucket_, align 8
  %vtable = load ptr, ptr %this, align 8
  %vfn = getelementptr inbounds i8, ptr %vtable, i64 224
  %8 = load ptr, ptr %vfn, align 8
  %call22 = tail call noundef nonnull align 8 dereferenceable(400) ptr %8(ptr noundef nonnull align 8 dereferenceable(400) %this)
  br label %return

return:                                           ; preds = %if.end4, %entry, %if.end17, %if.then13, %if.then3
  %retval.0 = phi i8 [ 0, %if.then3 ], [ 0, %if.then13 ], [ 1, %if.end17 ], [ 0, %entry ], [ 0, %if.end4 ]
  ret i8 %retval.0
}